
MASTER_SLAVE.elf:     file format elf32-avr

Sections:
Idx Name          Size      VMA       LMA       File off  Algn
  0 .text         00000562  00000000  00000000  00000054  2**1
                  CONTENTS, ALLOC, LOAD, READONLY, CODE

Disassembly of section .text:

00000000 <__vectors>:
   0:	0c 94 2a 00 	jmp	0x54	; 0x54 <__ctors_end>
   4:	0c 94 34 00 	jmp	0x68	; 0x68 <__bad_interrupt>
   8:	0c 94 34 00 	jmp	0x68	; 0x68 <__bad_interrupt>
   c:	0c 94 34 00 	jmp	0x68	; 0x68 <__bad_interrupt>
  10:	0c 94 34 00 	jmp	0x68	; 0x68 <__bad_interrupt>
  14:	0c 94 34 00 	jmp	0x68	; 0x68 <__bad_interrupt>
  18:	0c 94 34 00 	jmp	0x68	; 0x68 <__bad_interrupt>
  1c:	0c 94 34 00 	jmp	0x68	; 0x68 <__bad_interrupt>
  20:	0c 94 34 00 	jmp	0x68	; 0x68 <__bad_interrupt>
  24:	0c 94 34 00 	jmp	0x68	; 0x68 <__bad_interrupt>
  28:	0c 94 34 00 	jmp	0x68	; 0x68 <__bad_interrupt>
  2c:	0c 94 34 00 	jmp	0x68	; 0x68 <__bad_interrupt>
  30:	0c 94 34 00 	jmp	0x68	; 0x68 <__bad_interrupt>
  34:	0c 94 34 00 	jmp	0x68	; 0x68 <__bad_interrupt>
  38:	0c 94 34 00 	jmp	0x68	; 0x68 <__bad_interrupt>
  3c:	0c 94 34 00 	jmp	0x68	; 0x68 <__bad_interrupt>
  40:	0c 94 34 00 	jmp	0x68	; 0x68 <__bad_interrupt>
  44:	0c 94 34 00 	jmp	0x68	; 0x68 <__bad_interrupt>
  48:	0c 94 34 00 	jmp	0x68	; 0x68 <__bad_interrupt>
  4c:	0c 94 34 00 	jmp	0x68	; 0x68 <__bad_interrupt>
  50:	0c 94 34 00 	jmp	0x68	; 0x68 <__bad_interrupt>

00000054 <__ctors_end>:
  54:	11 24       	eor	r1, r1
  56:	1f be       	out	0x3f, r1	; 63
  58:	cf e5       	ldi	r28, 0x5F	; 95
  5a:	d8 e0       	ldi	r29, 0x08	; 8
  5c:	de bf       	out	0x3e, r29	; 62
  5e:	cd bf       	out	0x3d, r28	; 61
  60:	0e 94 71 02 	call	0x4e2	; 0x4e2 <main>
  64:	0c 94 af 02 	jmp	0x55e	; 0x55e <_exit>

00000068 <__bad_interrupt>:
  68:	0c 94 00 00 	jmp	0	; 0x0 <__vectors>

0000006c <DIO_vidSetPortDir>:
  6c:	81 30       	cpi	r24, 0x01	; 1
  6e:	49 f0       	breq	.+18     	; 0x82 <DIO_vidSetPortDir+0x16>
  70:	81 30       	cpi	r24, 0x01	; 1
  72:	28 f0       	brcs	.+10     	; 0x7e <DIO_vidSetPortDir+0x12>
  74:	82 30       	cpi	r24, 0x02	; 2
  76:	39 f0       	breq	.+14     	; 0x86 <DIO_vidSetPortDir+0x1a>
  78:	83 30       	cpi	r24, 0x03	; 3
  7a:	41 f4       	brne	.+16     	; 0x8c <DIO_vidSetPortDir+0x20>
  7c:	06 c0       	rjmp	.+12     	; 0x8a <DIO_vidSetPortDir+0x1e>
  7e:	6a bb       	out	0x1a, r22	; 26
  80:	08 95       	ret
  82:	67 bb       	out	0x17, r22	; 23
  84:	08 95       	ret
  86:	64 bb       	out	0x14, r22	; 20
  88:	08 95       	ret
  8a:	61 bb       	out	0x11, r22	; 17
  8c:	08 95       	ret

0000008e <DIO_vidSetPortVal>:
  8e:	81 30       	cpi	r24, 0x01	; 1
  90:	49 f0       	breq	.+18     	; 0xa4 <DIO_vidSetPortVal+0x16>
  92:	81 30       	cpi	r24, 0x01	; 1
  94:	28 f0       	brcs	.+10     	; 0xa0 <DIO_vidSetPortVal+0x12>
  96:	82 30       	cpi	r24, 0x02	; 2
  98:	39 f0       	breq	.+14     	; 0xa8 <DIO_vidSetPortVal+0x1a>
  9a:	83 30       	cpi	r24, 0x03	; 3
  9c:	41 f4       	brne	.+16     	; 0xae <DIO_vidSetPortVal+0x20>
  9e:	06 c0       	rjmp	.+12     	; 0xac <DIO_vidSetPortVal+0x1e>
  a0:	6b bb       	out	0x1b, r22	; 27
  a2:	08 95       	ret
  a4:	68 bb       	out	0x18, r22	; 24
  a6:	08 95       	ret
  a8:	65 bb       	out	0x15, r22	; 21
  aa:	08 95       	ret
  ac:	62 bb       	out	0x12, r22	; 18
  ae:	08 95       	ret

000000b0 <DIO_vidSetPinDir>:
  b0:	81 30       	cpi	r24, 0x01	; 1
  b2:	29 f1       	breq	.+74     	; 0xfe <DIO_vidSetPinDir+0x4e>
  b4:	81 30       	cpi	r24, 0x01	; 1
  b6:	38 f0       	brcs	.+14     	; 0xc6 <DIO_vidSetPinDir+0x16>
  b8:	82 30       	cpi	r24, 0x02	; 2
  ba:	09 f4       	brne	.+2      	; 0xbe <DIO_vidSetPinDir+0xe>
  bc:	3c c0       	rjmp	.+120    	; 0x136 <DIO_vidSetPinDir+0x86>
  be:	83 30       	cpi	r24, 0x03	; 3
  c0:	09 f0       	breq	.+2      	; 0xc4 <DIO_vidSetPinDir+0x14>
  c2:	6e c0       	rjmp	.+220    	; 0x1a0 <DIO_vidSetPinDir+0xf0>
  c4:	53 c0       	rjmp	.+166    	; 0x16c <DIO_vidSetPinDir+0xbc>
  c6:	44 23       	and	r20, r20
  c8:	61 f4       	brne	.+24     	; 0xe2 <DIO_vidSetPinDir+0x32>
  ca:	2a b3       	in	r18, 0x1a	; 26
  cc:	81 e0       	ldi	r24, 0x01	; 1
  ce:	90 e0       	ldi	r25, 0x00	; 0
  d0:	02 c0       	rjmp	.+4      	; 0xd6 <DIO_vidSetPinDir+0x26>
  d2:	88 0f       	add	r24, r24
  d4:	99 1f       	adc	r25, r25
  d6:	6a 95       	dec	r22
  d8:	e2 f7       	brpl	.-8      	; 0xd2 <DIO_vidSetPinDir+0x22>
  da:	80 95       	com	r24
  dc:	82 23       	and	r24, r18
  de:	8a bb       	out	0x1a, r24	; 26
  e0:	08 95       	ret
  e2:	4f 3f       	cpi	r20, 0xFF	; 255
  e4:	09 f0       	breq	.+2      	; 0xe8 <DIO_vidSetPinDir+0x38>
  e6:	5c c0       	rjmp	.+184    	; 0x1a0 <DIO_vidSetPinDir+0xf0>
  e8:	2a b3       	in	r18, 0x1a	; 26
  ea:	81 e0       	ldi	r24, 0x01	; 1
  ec:	90 e0       	ldi	r25, 0x00	; 0
  ee:	02 c0       	rjmp	.+4      	; 0xf4 <DIO_vidSetPinDir+0x44>
  f0:	88 0f       	add	r24, r24
  f2:	99 1f       	adc	r25, r25
  f4:	6a 95       	dec	r22
  f6:	e2 f7       	brpl	.-8      	; 0xf0 <DIO_vidSetPinDir+0x40>
  f8:	28 2b       	or	r18, r24
  fa:	2a bb       	out	0x1a, r18	; 26
  fc:	08 95       	ret
  fe:	44 23       	and	r20, r20
 100:	61 f4       	brne	.+24     	; 0x11a <DIO_vidSetPinDir+0x6a>
 102:	27 b3       	in	r18, 0x17	; 23
 104:	81 e0       	ldi	r24, 0x01	; 1
 106:	90 e0       	ldi	r25, 0x00	; 0
 108:	02 c0       	rjmp	.+4      	; 0x10e <DIO_vidSetPinDir+0x5e>
 10a:	88 0f       	add	r24, r24
 10c:	99 1f       	adc	r25, r25
 10e:	6a 95       	dec	r22
 110:	e2 f7       	brpl	.-8      	; 0x10a <DIO_vidSetPinDir+0x5a>
 112:	80 95       	com	r24
 114:	82 23       	and	r24, r18
 116:	87 bb       	out	0x17, r24	; 23
 118:	08 95       	ret
 11a:	4f 3f       	cpi	r20, 0xFF	; 255
 11c:	09 f0       	breq	.+2      	; 0x120 <DIO_vidSetPinDir+0x70>
 11e:	40 c0       	rjmp	.+128    	; 0x1a0 <DIO_vidSetPinDir+0xf0>
 120:	27 b3       	in	r18, 0x17	; 23
 122:	81 e0       	ldi	r24, 0x01	; 1
 124:	90 e0       	ldi	r25, 0x00	; 0
 126:	02 c0       	rjmp	.+4      	; 0x12c <DIO_vidSetPinDir+0x7c>
 128:	88 0f       	add	r24, r24
 12a:	99 1f       	adc	r25, r25
 12c:	6a 95       	dec	r22
 12e:	e2 f7       	brpl	.-8      	; 0x128 <DIO_vidSetPinDir+0x78>
 130:	28 2b       	or	r18, r24
 132:	27 bb       	out	0x17, r18	; 23
 134:	08 95       	ret
 136:	44 23       	and	r20, r20
 138:	61 f4       	brne	.+24     	; 0x152 <DIO_vidSetPinDir+0xa2>
 13a:	24 b3       	in	r18, 0x14	; 20
 13c:	81 e0       	ldi	r24, 0x01	; 1
 13e:	90 e0       	ldi	r25, 0x00	; 0
 140:	02 c0       	rjmp	.+4      	; 0x146 <DIO_vidSetPinDir+0x96>
 142:	88 0f       	add	r24, r24
 144:	99 1f       	adc	r25, r25
 146:	6a 95       	dec	r22
 148:	e2 f7       	brpl	.-8      	; 0x142 <DIO_vidSetPinDir+0x92>
 14a:	80 95       	com	r24
 14c:	82 23       	and	r24, r18
 14e:	84 bb       	out	0x14, r24	; 20
 150:	08 95       	ret
 152:	4f 3f       	cpi	r20, 0xFF	; 255
 154:	29 f5       	brne	.+74     	; 0x1a0 <DIO_vidSetPinDir+0xf0>
 156:	24 b3       	in	r18, 0x14	; 20
 158:	81 e0       	ldi	r24, 0x01	; 1
 15a:	90 e0       	ldi	r25, 0x00	; 0
 15c:	02 c0       	rjmp	.+4      	; 0x162 <DIO_vidSetPinDir+0xb2>
 15e:	88 0f       	add	r24, r24
 160:	99 1f       	adc	r25, r25
 162:	6a 95       	dec	r22
 164:	e2 f7       	brpl	.-8      	; 0x15e <DIO_vidSetPinDir+0xae>
 166:	28 2b       	or	r18, r24
 168:	24 bb       	out	0x14, r18	; 20
 16a:	08 95       	ret
 16c:	44 23       	and	r20, r20
 16e:	61 f4       	brne	.+24     	; 0x188 <DIO_vidSetPinDir+0xd8>
 170:	21 b3       	in	r18, 0x11	; 17
 172:	81 e0       	ldi	r24, 0x01	; 1
 174:	90 e0       	ldi	r25, 0x00	; 0
 176:	02 c0       	rjmp	.+4      	; 0x17c <DIO_vidSetPinDir+0xcc>
 178:	88 0f       	add	r24, r24
 17a:	99 1f       	adc	r25, r25
 17c:	6a 95       	dec	r22
 17e:	e2 f7       	brpl	.-8      	; 0x178 <DIO_vidSetPinDir+0xc8>
 180:	80 95       	com	r24
 182:	82 23       	and	r24, r18
 184:	81 bb       	out	0x11, r24	; 17
 186:	08 95       	ret
 188:	4f 3f       	cpi	r20, 0xFF	; 255
 18a:	51 f4       	brne	.+20     	; 0x1a0 <DIO_vidSetPinDir+0xf0>
 18c:	21 b3       	in	r18, 0x11	; 17
 18e:	81 e0       	ldi	r24, 0x01	; 1
 190:	90 e0       	ldi	r25, 0x00	; 0
 192:	02 c0       	rjmp	.+4      	; 0x198 <DIO_vidSetPinDir+0xe8>
 194:	88 0f       	add	r24, r24
 196:	99 1f       	adc	r25, r25
 198:	6a 95       	dec	r22
 19a:	e2 f7       	brpl	.-8      	; 0x194 <DIO_vidSetPinDir+0xe4>
 19c:	28 2b       	or	r18, r24
 19e:	21 bb       	out	0x11, r18	; 17
 1a0:	08 95       	ret

000001a2 <DIO_vidSetPinval>:
 1a2:	81 30       	cpi	r24, 0x01	; 1
 1a4:	29 f1       	breq	.+74     	; 0x1f0 <DIO_vidSetPinval+0x4e>
 1a6:	81 30       	cpi	r24, 0x01	; 1
 1a8:	38 f0       	brcs	.+14     	; 0x1b8 <DIO_vidSetPinval+0x16>
 1aa:	82 30       	cpi	r24, 0x02	; 2
 1ac:	09 f4       	brne	.+2      	; 0x1b0 <DIO_vidSetPinval+0xe>
 1ae:	3c c0       	rjmp	.+120    	; 0x228 <DIO_vidSetPinval+0x86>
 1b0:	83 30       	cpi	r24, 0x03	; 3
 1b2:	09 f0       	breq	.+2      	; 0x1b6 <DIO_vidSetPinval+0x14>
 1b4:	6e c0       	rjmp	.+220    	; 0x292 <DIO_vidSetPinval+0xf0>
 1b6:	53 c0       	rjmp	.+166    	; 0x25e <DIO_vidSetPinval+0xbc>
 1b8:	41 30       	cpi	r20, 0x01	; 1
 1ba:	59 f4       	brne	.+22     	; 0x1d2 <DIO_vidSetPinval+0x30>
 1bc:	2b b3       	in	r18, 0x1b	; 27
 1be:	81 e0       	ldi	r24, 0x01	; 1
 1c0:	90 e0       	ldi	r25, 0x00	; 0
 1c2:	02 c0       	rjmp	.+4      	; 0x1c8 <DIO_vidSetPinval+0x26>
 1c4:	88 0f       	add	r24, r24
 1c6:	99 1f       	adc	r25, r25
 1c8:	6a 95       	dec	r22
 1ca:	e2 f7       	brpl	.-8      	; 0x1c4 <DIO_vidSetPinval+0x22>
 1cc:	28 2b       	or	r18, r24
 1ce:	2b bb       	out	0x1b, r18	; 27
 1d0:	08 95       	ret
 1d2:	44 23       	and	r20, r20
 1d4:	09 f0       	breq	.+2      	; 0x1d8 <DIO_vidSetPinval+0x36>
 1d6:	5d c0       	rjmp	.+186    	; 0x292 <DIO_vidSetPinval+0xf0>
 1d8:	2b b3       	in	r18, 0x1b	; 27
 1da:	81 e0       	ldi	r24, 0x01	; 1
 1dc:	90 e0       	ldi	r25, 0x00	; 0
 1de:	02 c0       	rjmp	.+4      	; 0x1e4 <DIO_vidSetPinval+0x42>
 1e0:	88 0f       	add	r24, r24
 1e2:	99 1f       	adc	r25, r25
 1e4:	6a 95       	dec	r22
 1e6:	e2 f7       	brpl	.-8      	; 0x1e0 <DIO_vidSetPinval+0x3e>
 1e8:	80 95       	com	r24
 1ea:	82 23       	and	r24, r18
 1ec:	8b bb       	out	0x1b, r24	; 27
 1ee:	08 95       	ret
 1f0:	41 30       	cpi	r20, 0x01	; 1
 1f2:	59 f4       	brne	.+22     	; 0x20a <DIO_vidSetPinval+0x68>
 1f4:	28 b3       	in	r18, 0x18	; 24
 1f6:	81 e0       	ldi	r24, 0x01	; 1
 1f8:	90 e0       	ldi	r25, 0x00	; 0
 1fa:	02 c0       	rjmp	.+4      	; 0x200 <DIO_vidSetPinval+0x5e>
 1fc:	88 0f       	add	r24, r24
 1fe:	99 1f       	adc	r25, r25
 200:	6a 95       	dec	r22
 202:	e2 f7       	brpl	.-8      	; 0x1fc <DIO_vidSetPinval+0x5a>
 204:	28 2b       	or	r18, r24
 206:	28 bb       	out	0x18, r18	; 24
 208:	08 95       	ret
 20a:	44 23       	and	r20, r20
 20c:	09 f0       	breq	.+2      	; 0x210 <DIO_vidSetPinval+0x6e>
 20e:	41 c0       	rjmp	.+130    	; 0x292 <DIO_vidSetPinval+0xf0>
 210:	28 b3       	in	r18, 0x18	; 24
 212:	81 e0       	ldi	r24, 0x01	; 1
 214:	90 e0       	ldi	r25, 0x00	; 0
 216:	02 c0       	rjmp	.+4      	; 0x21c <DIO_vidSetPinval+0x7a>
 218:	88 0f       	add	r24, r24
 21a:	99 1f       	adc	r25, r25
 21c:	6a 95       	dec	r22
 21e:	e2 f7       	brpl	.-8      	; 0x218 <DIO_vidSetPinval+0x76>
 220:	80 95       	com	r24
 222:	82 23       	and	r24, r18
 224:	88 bb       	out	0x18, r24	; 24
 226:	08 95       	ret
 228:	41 30       	cpi	r20, 0x01	; 1
 22a:	59 f4       	brne	.+22     	; 0x242 <DIO_vidSetPinval+0xa0>
 22c:	25 b3       	in	r18, 0x15	; 21
 22e:	81 e0       	ldi	r24, 0x01	; 1
 230:	90 e0       	ldi	r25, 0x00	; 0
 232:	02 c0       	rjmp	.+4      	; 0x238 <DIO_vidSetPinval+0x96>
 234:	88 0f       	add	r24, r24
 236:	99 1f       	adc	r25, r25
 238:	6a 95       	dec	r22
 23a:	e2 f7       	brpl	.-8      	; 0x234 <DIO_vidSetPinval+0x92>
 23c:	28 2b       	or	r18, r24
 23e:	25 bb       	out	0x15, r18	; 21
 240:	08 95       	ret
 242:	44 23       	and	r20, r20
 244:	31 f5       	brne	.+76     	; 0x292 <DIO_vidSetPinval+0xf0>
 246:	25 b3       	in	r18, 0x15	; 21
 248:	81 e0       	ldi	r24, 0x01	; 1
 24a:	90 e0       	ldi	r25, 0x00	; 0
 24c:	02 c0       	rjmp	.+4      	; 0x252 <DIO_vidSetPinval+0xb0>
 24e:	88 0f       	add	r24, r24
 250:	99 1f       	adc	r25, r25
 252:	6a 95       	dec	r22
 254:	e2 f7       	brpl	.-8      	; 0x24e <DIO_vidSetPinval+0xac>
 256:	80 95       	com	r24
 258:	82 23       	and	r24, r18
 25a:	85 bb       	out	0x15, r24	; 21
 25c:	08 95       	ret
 25e:	41 30       	cpi	r20, 0x01	; 1
 260:	59 f4       	brne	.+22     	; 0x278 <DIO_vidSetPinval+0xd6>
 262:	22 b3       	in	r18, 0x12	; 18
 264:	81 e0       	ldi	r24, 0x01	; 1
 266:	90 e0       	ldi	r25, 0x00	; 0
 268:	02 c0       	rjmp	.+4      	; 0x26e <DIO_vidSetPinval+0xcc>
 26a:	88 0f       	add	r24, r24
 26c:	99 1f       	adc	r25, r25
 26e:	6a 95       	dec	r22
 270:	e2 f7       	brpl	.-8      	; 0x26a <DIO_vidSetPinval+0xc8>
 272:	28 2b       	or	r18, r24
 274:	22 bb       	out	0x12, r18	; 18
 276:	08 95       	ret
 278:	44 23       	and	r20, r20
 27a:	59 f4       	brne	.+22     	; 0x292 <DIO_vidSetPinval+0xf0>
 27c:	22 b3       	in	r18, 0x12	; 18
 27e:	81 e0       	ldi	r24, 0x01	; 1
 280:	90 e0       	ldi	r25, 0x00	; 0
 282:	02 c0       	rjmp	.+4      	; 0x288 <DIO_vidSetPinval+0xe6>
 284:	88 0f       	add	r24, r24
 286:	99 1f       	adc	r25, r25
 288:	6a 95       	dec	r22
 28a:	e2 f7       	brpl	.-8      	; 0x284 <DIO_vidSetPinval+0xe2>
 28c:	80 95       	com	r24
 28e:	82 23       	and	r24, r18
 290:	82 bb       	out	0x12, r24	; 18
 292:	08 95       	ret

00000294 <DIO_u8GetPinaValue>:
 294:	81 30       	cpi	r24, 0x01	; 1
 296:	49 f0       	breq	.+18     	; 0x2aa <DIO_u8GetPinaValue+0x16>
 298:	81 30       	cpi	r24, 0x01	; 1
 29a:	28 f0       	brcs	.+10     	; 0x2a6 <DIO_u8GetPinaValue+0x12>
 29c:	82 30       	cpi	r24, 0x02	; 2
 29e:	39 f0       	breq	.+14     	; 0x2ae <DIO_u8GetPinaValue+0x1a>
 2a0:	83 30       	cpi	r24, 0x03	; 3
 2a2:	b1 f4       	brne	.+44     	; 0x2d0 <DIO_u8GetPinaValue+0x3c>
 2a4:	0d c0       	rjmp	.+26     	; 0x2c0 <DIO_u8GetPinaValue+0x2c>
 2a6:	89 b3       	in	r24, 0x19	; 25
 2a8:	03 c0       	rjmp	.+6      	; 0x2b0 <DIO_u8GetPinaValue+0x1c>
 2aa:	86 b3       	in	r24, 0x16	; 22
 2ac:	01 c0       	rjmp	.+2      	; 0x2b0 <DIO_u8GetPinaValue+0x1c>
 2ae:	83 b3       	in	r24, 0x13	; 19
 2b0:	90 e0       	ldi	r25, 0x00	; 0
 2b2:	02 c0       	rjmp	.+4      	; 0x2b8 <DIO_u8GetPinaValue+0x24>
 2b4:	95 95       	asr	r25
 2b6:	87 95       	ror	r24
 2b8:	6a 95       	dec	r22
 2ba:	e2 f7       	brpl	.-8      	; 0x2b4 <DIO_u8GetPinaValue+0x20>
 2bc:	81 70       	andi	r24, 0x01	; 1
 2be:	08 95       	ret
 2c0:	80 b3       	in	r24, 0x10	; 16
 2c2:	90 e0       	ldi	r25, 0x00	; 0
 2c4:	02 c0       	rjmp	.+4      	; 0x2ca <DIO_u8GetPinaValue+0x36>
 2c6:	95 95       	asr	r25
 2c8:	87 95       	ror	r24
 2ca:	6a 95       	dec	r22
 2cc:	e2 f7       	brpl	.-8      	; 0x2c6 <DIO_u8GetPinaValue+0x32>
 2ce:	81 70       	andi	r24, 0x01	; 1
 2d0:	08 95       	ret

000002d2 <SPI_SlaveInit>:
 2d2:	6e 9a       	sbi	0x0d, 6	; 13
 2d4:	6d 9a       	sbi	0x0d, 5	; 13
 2d6:	6c 9a       	sbi	0x0d, 4	; 13
 2d8:	6b 98       	cbi	0x0d, 3	; 13
 2da:	6a 9a       	sbi	0x0d, 2	; 13
 2dc:	68 9a       	sbi	0x0d, 0	; 13
 2de:	08 95       	ret

000002e0 <SPI_SlaveReceive>:
 2e0:	8e b1       	in	r24, 0x0e	; 14
 2e2:	88 1f       	adc	r24, r24
 2e4:	88 27       	eor	r24, r24
 2e6:	88 1f       	adc	r24, r24
 2e8:	81 30       	cpi	r24, 0x01	; 1
 2ea:	d1 f7       	brne	.-12     	; 0x2e0 <SPI_SlaveReceive>
 2ec:	8f b1       	in	r24, 0x0f	; 15
 2ee:	08 95       	ret

000002f0 <SPI_MasterSend>:
 2f0:	8f b9       	out	0x0f, r24	; 15
 2f2:	8e b1       	in	r24, 0x0e	; 14
 2f4:	88 1f       	adc	r24, r24
 2f6:	88 27       	eor	r24, r24
 2f8:	88 1f       	adc	r24, r24
 2fa:	81 30       	cpi	r24, 0x01	; 1
 2fc:	d1 f7       	brne	.-12     	; 0x2f2 <SPI_MasterSend+0x2>
 2fe:	08 95       	ret

00000300 <LCD_vidWriteChar>:
 300:	0f 93       	push	r16
 302:	1f 93       	push	r17
 304:	18 2f       	mov	r17, r24
 306:	80 e0       	ldi	r24, 0x00	; 0
 308:	60 e0       	ldi	r22, 0x00	; 0
 30a:	41 e0       	ldi	r20, 0x01	; 1
 30c:	0e 94 d1 00 	call	0x1a2	; 0x1a2 <DIO_vidSetPinval>
 310:	80 e0       	ldi	r24, 0x00	; 0
 312:	61 e0       	ldi	r22, 0x01	; 1
 314:	40 e0       	ldi	r20, 0x00	; 0
 316:	0e 94 d1 00 	call	0x1a2	; 0x1a2 <DIO_vidSetPinval>
 31a:	80 e0       	ldi	r24, 0x00	; 0
 31c:	62 e0       	ldi	r22, 0x02	; 2
 31e:	41 e0       	ldi	r20, 0x01	; 1
 320:	0e 94 d1 00 	call	0x1a2	; 0x1a2 <DIO_vidSetPinval>
 324:	83 e0       	ldi	r24, 0x03	; 3
 326:	61 2f       	mov	r22, r17
 328:	0e 94 47 00 	call	0x8e	; 0x8e <DIO_vidSetPortVal>
 32c:	00 e7       	ldi	r16, 0x70	; 112
 32e:	17 e1       	ldi	r17, 0x17	; 23
 330:	c8 01       	movw	r24, r16
 332:	01 97       	sbiw	r24, 0x01	; 1
 334:	f1 f7       	brne	.-4      	; 0x332 <LCD_vidWriteChar+0x32>
 336:	80 e0       	ldi	r24, 0x00	; 0
 338:	62 e0       	ldi	r22, 0x02	; 2
 33a:	40 e0       	ldi	r20, 0x00	; 0
 33c:	0e 94 d1 00 	call	0x1a2	; 0x1a2 <DIO_vidSetPinval>
 340:	c8 01       	movw	r24, r16
 342:	01 97       	sbiw	r24, 0x01	; 1
 344:	f1 f7       	brne	.-4      	; 0x342 <LCD_vidWriteChar+0x42>
 346:	1f 91       	pop	r17
 348:	0f 91       	pop	r16
 34a:	08 95       	ret

0000034c <LCD_vidSendCMD>:
 34c:	0f 93       	push	r16
 34e:	1f 93       	push	r17
 350:	18 2f       	mov	r17, r24
 352:	80 e0       	ldi	r24, 0x00	; 0
 354:	60 e0       	ldi	r22, 0x00	; 0
 356:	40 e0       	ldi	r20, 0x00	; 0
 358:	0e 94 d1 00 	call	0x1a2	; 0x1a2 <DIO_vidSetPinval>
 35c:	80 e0       	ldi	r24, 0x00	; 0
 35e:	61 e0       	ldi	r22, 0x01	; 1
 360:	40 e0       	ldi	r20, 0x00	; 0
 362:	0e 94 d1 00 	call	0x1a2	; 0x1a2 <DIO_vidSetPinval>
 366:	80 e0       	ldi	r24, 0x00	; 0
 368:	62 e0       	ldi	r22, 0x02	; 2
 36a:	41 e0       	ldi	r20, 0x01	; 1
 36c:	0e 94 d1 00 	call	0x1a2	; 0x1a2 <DIO_vidSetPinval>
 370:	83 e0       	ldi	r24, 0x03	; 3
 372:	61 2f       	mov	r22, r17
 374:	0e 94 47 00 	call	0x8e	; 0x8e <DIO_vidSetPortVal>
 378:	00 e7       	ldi	r16, 0x70	; 112
 37a:	17 e1       	ldi	r17, 0x17	; 23
 37c:	c8 01       	movw	r24, r16
 37e:	01 97       	sbiw	r24, 0x01	; 1
 380:	f1 f7       	brne	.-4      	; 0x37e <LCD_vidSendCMD+0x32>
 382:	80 e0       	ldi	r24, 0x00	; 0
 384:	62 e0       	ldi	r22, 0x02	; 2
 386:	40 e0       	ldi	r20, 0x00	; 0
 388:	0e 94 d1 00 	call	0x1a2	; 0x1a2 <DIO_vidSetPinval>
 38c:	c8 01       	movw	r24, r16
 38e:	01 97       	sbiw	r24, 0x01	; 1
 390:	f1 f7       	brne	.-4      	; 0x38e <LCD_vidSendCMD+0x42>
 392:	1f 91       	pop	r17
 394:	0f 91       	pop	r16
 396:	08 95       	ret

00000398 <LCD_Custom_Char>:
 398:	0f 93       	push	r16
 39a:	1f 93       	push	r17
 39c:	cf 93       	push	r28
 39e:	df 93       	push	r29
 3a0:	8b 01       	movw	r16, r22
 3a2:	88 30       	cpi	r24, 0x08	; 8
 3a4:	90 f4       	brcc	.+36     	; 0x3ca <LCD_Custom_Char+0x32>
 3a6:	88 0f       	add	r24, r24
 3a8:	88 0f       	add	r24, r24
 3aa:	88 0f       	add	r24, r24
 3ac:	80 5c       	subi	r24, 0xC0	; 192
 3ae:	0e 94 a6 01 	call	0x34c	; 0x34c <LCD_vidSendCMD>
 3b2:	c0 e0       	ldi	r28, 0x00	; 0
 3b4:	d0 e0       	ldi	r29, 0x00	; 0
 3b6:	f8 01       	movw	r30, r16
 3b8:	ec 0f       	add	r30, r28
 3ba:	fd 1f       	adc	r31, r29
 3bc:	80 81       	ld	r24, Z
 3be:	0e 94 80 01 	call	0x300	; 0x300 <LCD_vidWriteChar>
 3c2:	21 96       	adiw	r28, 0x01	; 1
 3c4:	c8 30       	cpi	r28, 0x08	; 8
 3c6:	d1 05       	cpc	r29, r1
 3c8:	b1 f7       	brne	.-20     	; 0x3b6 <LCD_Custom_Char+0x1e>
 3ca:	80 e0       	ldi	r24, 0x00	; 0
 3cc:	0e 94 a6 01 	call	0x34c	; 0x34c <LCD_vidSendCMD>
 3d0:	df 91       	pop	r29
 3d2:	cf 91       	pop	r28
 3d4:	1f 91       	pop	r17
 3d6:	0f 91       	pop	r16
 3d8:	08 95       	ret

000003da <LCD_vidShiftRL>:
 3da:	0f 93       	push	r16
 3dc:	1f 93       	push	r17
 3de:	cf 93       	push	r28
 3e0:	df 93       	push	r29
 3e2:	08 2f       	mov	r16, r24
 3e4:	10 e0       	ldi	r17, 0x00	; 0
 3e6:	cc e2       	ldi	r28, 0x2C	; 44
 3e8:	d1 e0       	ldi	r29, 0x01	; 1
 3ea:	0b c0       	rjmp	.+22     	; 0x402 <LCD_vidShiftRL+0x28>
 3ec:	8c e1       	ldi	r24, 0x1C	; 28
 3ee:	0e 94 a6 01 	call	0x34c	; 0x34c <LCD_vidSendCMD>
 3f2:	88 e8       	ldi	r24, 0x88	; 136
 3f4:	93 e1       	ldi	r25, 0x13	; 19
 3f6:	fe 01       	movw	r30, r28
 3f8:	31 97       	sbiw	r30, 0x01	; 1
 3fa:	f1 f7       	brne	.-4      	; 0x3f8 <LCD_vidShiftRL+0x1e>
 3fc:	01 97       	sbiw	r24, 0x01	; 1
 3fe:	d9 f7       	brne	.-10     	; 0x3f6 <LCD_vidShiftRL+0x1c>
 400:	1f 5f       	subi	r17, 0xFF	; 255
 402:	10 17       	cp	r17, r16
 404:	98 f3       	brcs	.-26     	; 0x3ec <LCD_vidShiftRL+0x12>
 406:	10 e0       	ldi	r17, 0x00	; 0
 408:	cc e2       	ldi	r28, 0x2C	; 44
 40a:	d1 e0       	ldi	r29, 0x01	; 1
 40c:	0b c0       	rjmp	.+22     	; 0x424 <LCD_vidShiftRL+0x4a>
 40e:	88 e1       	ldi	r24, 0x18	; 24
 410:	0e 94 a6 01 	call	0x34c	; 0x34c <LCD_vidSendCMD>
 414:	88 e8       	ldi	r24, 0x88	; 136
 416:	93 e1       	ldi	r25, 0x13	; 19
 418:	fe 01       	movw	r30, r28
 41a:	31 97       	sbiw	r30, 0x01	; 1
 41c:	f1 f7       	brne	.-4      	; 0x41a <LCD_vidShiftRL+0x40>
 41e:	01 97       	sbiw	r24, 0x01	; 1
 420:	d9 f7       	brne	.-10     	; 0x418 <LCD_vidShiftRL+0x3e>
 422:	1f 5f       	subi	r17, 0xFF	; 255
 424:	10 17       	cp	r17, r16
 426:	98 f3       	brcs	.-26     	; 0x40e <LCD_vidShiftRL+0x34>
 428:	df 91       	pop	r29
 42a:	cf 91       	pop	r28
 42c:	1f 91       	pop	r17
 42e:	0f 91       	pop	r16
 430:	08 95       	ret

00000432 <LCD_vidWriteStr>:
 432:	ef 92       	push	r14
 434:	ff 92       	push	r15
 436:	0f 93       	push	r16
 438:	1f 93       	push	r17
 43a:	cf 93       	push	r28
 43c:	df 93       	push	r29
 43e:	06 2f       	mov	r16, r22
 440:	ec 01       	movw	r28, r24
 442:	10 e0       	ldi	r17, 0x00	; 0
 444:	80 e7       	ldi	r24, 0x70	; 112
 446:	e8 2e       	mov	r14, r24
 448:	87 e1       	ldi	r24, 0x17	; 23
 44a:	f8 2e       	mov	r15, r24
 44c:	07 c0       	rjmp	.+14     	; 0x45c <LCD_vidWriteStr+0x2a>
 44e:	89 91       	ld	r24, Y+
 450:	0e 94 80 01 	call	0x300	; 0x300 <LCD_vidWriteChar>
 454:	c7 01       	movw	r24, r14
 456:	01 97       	sbiw	r24, 0x01	; 1
 458:	f1 f7       	brne	.-4      	; 0x456 <LCD_vidWriteStr+0x24>
 45a:	1f 5f       	subi	r17, 0xFF	; 255
 45c:	10 17       	cp	r17, r16
 45e:	b8 f3       	brcs	.-18     	; 0x44e <LCD_vidWriteStr+0x1c>
 460:	88 e8       	ldi	r24, 0x88	; 136
 462:	93 e1       	ldi	r25, 0x13	; 19
 464:	2c e2       	ldi	r18, 0x2C	; 44
 466:	31 e0       	ldi	r19, 0x01	; 1
 468:	f9 01       	movw	r30, r18
 46a:	31 97       	sbiw	r30, 0x01	; 1
 46c:	f1 f7       	brne	.-4      	; 0x46a <LCD_vidWriteStr+0x38>
 46e:	01 97       	sbiw	r24, 0x01	; 1
 470:	d9 f7       	brne	.-10     	; 0x468 <LCD_vidWriteStr+0x36>
 472:	80 e1       	ldi	r24, 0x10	; 16
 474:	80 1b       	sub	r24, r16
 476:	0e 94 ed 01 	call	0x3da	; 0x3da <LCD_vidShiftRL>
 47a:	81 e0       	ldi	r24, 0x01	; 1
 47c:	0e 94 a6 01 	call	0x34c	; 0x34c <LCD_vidSendCMD>
 480:	88 e9       	ldi	r24, 0x98	; 152
 482:	9a e3       	ldi	r25, 0x3A	; 58
 484:	01 97       	sbiw	r24, 0x01	; 1
 486:	f1 f7       	brne	.-4      	; 0x484 <LCD_vidWriteStr+0x52>
 488:	df 91       	pop	r29
 48a:	cf 91       	pop	r28
 48c:	1f 91       	pop	r17
 48e:	0f 91       	pop	r16
 490:	ff 90       	pop	r15
 492:	ef 90       	pop	r14
 494:	08 95       	ret

00000496 <LCD_vidInit>:
 496:	0f 93       	push	r16
 498:	1f 93       	push	r17
 49a:	84 ef       	ldi	r24, 0xF4	; 244
 49c:	91 e0       	ldi	r25, 0x01	; 1
 49e:	2c e2       	ldi	r18, 0x2C	; 44
 4a0:	31 e0       	ldi	r19, 0x01	; 1
 4a2:	f9 01       	movw	r30, r18
 4a4:	31 97       	sbiw	r30, 0x01	; 1
 4a6:	f1 f7       	brne	.-4      	; 0x4a4 <LCD_vidInit+0xe>
 4a8:	01 97       	sbiw	r24, 0x01	; 1
 4aa:	d9 f7       	brne	.-10     	; 0x4a2 <LCD_vidInit+0xc>
 4ac:	8c e3       	ldi	r24, 0x3C	; 60
 4ae:	0e 94 a6 01 	call	0x34c	; 0x34c <LCD_vidSendCMD>
 4b2:	00 e7       	ldi	r16, 0x70	; 112
 4b4:	17 e1       	ldi	r17, 0x17	; 23
 4b6:	c8 01       	movw	r24, r16
 4b8:	01 97       	sbiw	r24, 0x01	; 1
 4ba:	f1 f7       	brne	.-4      	; 0x4b8 <LCD_vidInit+0x22>
 4bc:	8c e0       	ldi	r24, 0x0C	; 12
 4be:	0e 94 a6 01 	call	0x34c	; 0x34c <LCD_vidSendCMD>
 4c2:	c8 01       	movw	r24, r16
 4c4:	01 97       	sbiw	r24, 0x01	; 1
 4c6:	f1 f7       	brne	.-4      	; 0x4c4 <LCD_vidInit+0x2e>
 4c8:	81 e0       	ldi	r24, 0x01	; 1
 4ca:	0e 94 a6 01 	call	0x34c	; 0x34c <LCD_vidSendCMD>
 4ce:	88 e9       	ldi	r24, 0x98	; 152
 4d0:	9a e3       	ldi	r25, 0x3A	; 58
 4d2:	01 97       	sbiw	r24, 0x01	; 1
 4d4:	f1 f7       	brne	.-4      	; 0x4d2 <LCD_vidInit+0x3c>
 4d6:	86 e0       	ldi	r24, 0x06	; 6
 4d8:	0e 94 a6 01 	call	0x34c	; 0x34c <LCD_vidSendCMD>
 4dc:	1f 91       	pop	r17
 4de:	0f 91       	pop	r16
 4e0:	08 95       	ret

000004e2 <main>:
 4e2:	cf 93       	push	r28
 4e4:	df 93       	push	r29
 4e6:	83 e0       	ldi	r24, 0x03	; 3
 4e8:	6f ef       	ldi	r22, 0xFF	; 255
 4ea:	0e 94 36 00 	call	0x6c	; 0x6c <DIO_vidSetPortDir>
 4ee:	80 e0       	ldi	r24, 0x00	; 0
 4f0:	6f ef       	ldi	r22, 0xFF	; 255
 4f2:	0e 94 36 00 	call	0x6c	; 0x6c <DIO_vidSetPortDir>
 4f6:	0e 94 4b 02 	call	0x496	; 0x496 <LCD_vidInit>
 4fa:	81 e0       	ldi	r24, 0x01	; 1
 4fc:	65 e0       	ldi	r22, 0x05	; 5
 4fe:	41 e0       	ldi	r20, 0x01	; 1
 500:	0e 94 58 00 	call	0xb0	; 0xb0 <DIO_vidSetPinDir>
 504:	81 e0       	ldi	r24, 0x01	; 1
 506:	66 e0       	ldi	r22, 0x06	; 6
 508:	40 e0       	ldi	r20, 0x00	; 0
 50a:	0e 94 58 00 	call	0xb0	; 0xb0 <DIO_vidSetPinDir>
 50e:	81 e0       	ldi	r24, 0x01	; 1
 510:	64 e0       	ldi	r22, 0x04	; 4
 512:	41 e0       	ldi	r20, 0x01	; 1
 514:	0e 94 58 00 	call	0xb0	; 0xb0 <DIO_vidSetPinDir>
 518:	81 e0       	ldi	r24, 0x01	; 1
 51a:	64 e0       	ldi	r22, 0x04	; 4
 51c:	40 e0       	ldi	r20, 0x00	; 0
 51e:	0e 94 d1 00 	call	0x1a2	; 0x1a2 <DIO_vidSetPinval>
 522:	81 e0       	ldi	r24, 0x01	; 1
 524:	67 e0       	ldi	r22, 0x07	; 7
 526:	40 e0       	ldi	r20, 0x00	; 0
 528:	0e 94 58 00 	call	0xb0	; 0xb0 <DIO_vidSetPinDir>
 52c:	0e 94 69 01 	call	0x2d2	; 0x2d2 <SPI_SlaveInit>
 530:	20 e3       	ldi	r18, 0x30	; 48
 532:	35 e7       	ldi	r19, 0x75	; 117
 534:	cc e2       	ldi	r28, 0x2C	; 44
 536:	d1 e0       	ldi	r29, 0x01	; 1
 538:	05 c0       	rjmp	.+10     	; 0x544 <main+0x62>
 53a:	ce 01       	movw	r24, r28
 53c:	01 97       	sbiw	r24, 0x01	; 1
 53e:	f1 f7       	brne	.-4      	; 0x53c <main+0x5a>
 540:	21 50       	subi	r18, 0x01	; 1
 542:	30 40       	sbci	r19, 0x00	; 0
 544:	21 15       	cp	r18, r1
 546:	31 05       	cpc	r19, r1
 548:	c1 f7       	brne	.-16     	; 0x53a <main+0x58>
 54a:	82 e5       	ldi	r24, 0x52	; 82
 54c:	0e 94 78 01 	call	0x2f0	; 0x2f0 <SPI_MasterSend>
 550:	0e 94 70 01 	call	0x2e0	; 0x2e0 <SPI_SlaveReceive>
 554:	0e 94 80 01 	call	0x300	; 0x300 <LCD_vidWriteChar>
 558:	20 e3       	ldi	r18, 0x30	; 48
 55a:	35 e7       	ldi	r19, 0x75	; 117
 55c:	ee cf       	rjmp	.-36     	; 0x53a <main+0x58>

0000055e <_exit>:
 55e:	f8 94       	cli

00000560 <__stop_program>:
 560:	ff cf       	rjmp	.-2      	; 0x560 <__stop_program>
